target datalayout = "e-m:e-p270:32:32-p271:32:32-p272:64:64-i64:64-i128:128-f80:128-n8:16:32:64-S128"
target triple = "x86_64-pc-linux-gnu"

%union.pthread_mutex_t = type { %struct.__pthread_mutex_s }
%struct.__pthread_mutex_s = type { i32, i32, i32, i32, i32, i16, i16, %struct.__pthread_internal_list }
%struct.__pthread_internal_list = type { ptr, ptr }
%struct.slurm_conf_t = type { i64, ptr, i16, ptr, ptr, ptr, ptr, ptr, i16, ptr, ptr, ptr, ptr, ptr, ptr, ptr, i16, ptr, ptr, ptr, ptr, i16, ptr, ptr, ptr, i64, ptr, ptr, ptr, ptr, i16, ptr, ptr, i16, i32, ptr, i32, ptr, i32, i32, ptr, ptr, i64, i64, ptr, i16, i16, ptr, i32, i32, ptr, i32, ptr, i32, i16, i16, i16, ptr, i16, i16, ptr, ptr, i32, i16, i16, ptr, i32, i16, ptr, ptr, ptr, ptr, i16, ptr, ptr, ptr, ptr, i32, ptr, ptr, ptr, ptr, i16, i16, ptr, i32, i32, i32, i16, i16, ptr, ptr, i16, ptr, ptr, i32, i32, i32, i32, i32, i64, i32, i32, i16, ptr, ptr, i32, ptr, ptr, ptr, i16, i32, ptr, ptr, i16, ptr, ptr, i32, i16, ptr, ptr, ptr, ptr, i32, i32, i16, i16, i32, ptr, i16, ptr, i32, i32, i32, i32, i32, i32, ptr, i16, ptr, ptr, i32, i16, ptr, i32, i16, i16, ptr, ptr, ptr, i16, ptr, ptr, ptr, ptr, i16, i16, ptr, i16, ptr, i16, ptr, i16, ptr, i16, ptr, ptr, ptr, ptr, i16, ptr, ptr, ptr, i32, ptr, i32, ptr, ptr, i16, ptr, ptr, i32, i16, ptr, ptr, i16, i16, ptr, i16, ptr, ptr, ptr, i32, ptr, i16, i16, ptr, ptr, ptr, ptr, ptr, ptr, ptr, ptr, i16, i32, i16, ptr, ptr, ptr, ptr, i32, ptr, ptr, ptr, i16, ptr, ptr, ptr, i16, ptr, i16, ptr, i16, i16, ptr }
%struct.job_record = type { i32, ptr, ptr, ptr, ptr, i16, i32, i32, i32, ptr, i32, ptr, ptr, i16, ptr, double, i64, ptr, ptr, ptr, ptr, ptr, ptr, i32, ptr, i32, i64, i64, i32, i32, ptr, i16, i64, i64, i8, i32, ptr, ptr, ptr, ptr, ptr, ptr, ptr, ptr, i32, ptr, ptr, i32, ptr, i32, ptr, i32, ptr, i32, ptr, ptr, ptr, ptr, ptr, ptr, i32, i16, i64, ptr, ptr, ptr, ptr, %struct.acct_policy_limit_set_t, i16, ptr, ptr, ptr, ptr, ptr, i32, ptr, ptr, ptr, ptr, ptr, i32, i32, ptr, ptr, ptr, i16, ptr, ptr, i8, ptr, ptr, i64, i64, i8, i32, i32, i8, i32, ptr, i32, i64, i32, ptr, ptr, ptr, i8, i16, i64, i32, ptr, ptr, ptr, ptr, ptr, i16, i32, ptr, ptr, ptr, ptr, i32, ptr, i32, i16, i64, ptr, i32, i32, ptr, i64, ptr, ptr, i64, i32, i32, i64, i32, i32, ptr, ptr, ptr, ptr, ptr, ptr, ptr, ptr, ptr, ptr, ptr, ptr, i32, ptr, i16, i16, i16, i16, ptr, i32, i32, i8, i64 }
%struct.acct_policy_limit_set_t = type { i16, i16, ptr }
%struct.job_fed_details_t = type { i32, ptr, i64, ptr, i64, ptr }
%struct.slurmdb_federation_rec_t = type { ptr, i32, ptr }
%struct.slurmdb_cluster_rec = type { ptr, i16, i64, %struct.sockaddr_storage, ptr, i32, i16, ptr, i16, %struct.slurmdb_cluster_fed_t, i32, %union.pthread_mutex_t, ptr, ptr, ptr, i16, ptr, ptr }
%struct.sockaddr_storage = type { i16, [118 x i8], i64 }
%struct.slurmdb_cluster_fed_t = type { ptr, i32, ptr, ptr, ptr, i32, i8, i8 }
%struct.slurm_msg = type { %struct.sockaddr_storage, ptr, i32, i32, i32, i8, i32, i8, i32, ptr, ptr, i32, ptr, ptr, i16, i8, i16, i16, %struct.forward, ptr, %struct.sockaddr_storage, ptr }
%struct.forward = type { %struct.slurm_node_alias_addrs_t, i16, i16, ptr, i32, i16, i16 }
%struct.slurm_node_alias_addrs_t = type { i64, ptr, ptr, i32, ptr }
%struct.persist_conn_t = type { ptr, i32, i32, i8, ptr, ptr, ptr, i64, i16, i32, i16, i8, i32, i32, ptr, i16, ptr, i64, i32, ptr, %struct.slurm_trigger_callbacks_t, i16 }
%struct.slurm_trigger_callbacks_t = type { ptr, ptr, ptr, ptr, ptr }
%struct.sib_msg_t = type { i32, ptr, ptr, i32, i16, i16, i64, i32, i32, i32, i32, i64, ptr, i32, i16, ptr, i16, i32 }

@fed_mgr_fed_rec = dso_local global ptr null, align 8
@fed_mgr_cluster_rec = dso_local global ptr null, align 8
@slurm_conf = external global %struct.slurm_conf_t, align 8
@.str.34 = private unnamed_addr constant [56 x i8] c"Unable to find origin cluster for %pJ from origin id %d\00", align 1
@.str.47 = private unnamed_addr constant [40 x i8] c"FEDR: complete fed %pJ by cluster_id %d\00", align 1
@.str.183 = private unnamed_addr constant [28 x i8] c"job %pJ not a federated job\00", align 1

; Function Attrs: nounwind uwtable
define dso_local i32 @fed_mgr_get_cluster_id(i32 noundef %0) #0 {
  %2 = alloca i32, align 4
  store i32 %0, ptr %2, align 4
  %3 = load i32, ptr %2, align 4
  %4 = lshr i32 %3, 26
  ret i32 %4
}

; Function Attrs: nounwind uwtable
define internal i32 @_persist_fed_job_revoke(ptr noundef %0, i32 noundef %1, i32 noundef %2, i32 noundef %3, i64 noundef %4) #0 {
  %6 = alloca i32, align 4
  %7 = alloca ptr, align 8
  %8 = alloca i32, align 4
  %9 = alloca i32, align 4
  %10 = alloca i32, align 4
  %11 = alloca i64, align 8
  %12 = alloca i32, align 4
  %13 = alloca %struct.slurm_msg, align 8
  %14 = alloca %struct.sib_msg_t, align 8
  %15 = alloca i32, align 4
  store ptr %0, ptr %7, align 8
  store i32 %1, ptr %8, align 4
  store i32 %2, ptr %9, align 4
  store i32 %3, ptr %10, align 4
  store i64 %4, ptr %11, align 8
  call void @llvm.lifetime.start.p0(i64 4, ptr %12) #9
  call void @llvm.lifetime.start.p0(i64 424, ptr %13) #9
  call void @llvm.lifetime.start.p0(i64 96, ptr %14) #9
  %16 = load ptr, ptr %7, align 8
  %17 = getelementptr inbounds nuw %struct.slurmdb_cluster_rec, ptr %16, i32 0, i32 9
  %18 = getelementptr inbounds nuw %struct.slurmdb_cluster_fed_t, ptr %17, i32 0, i32 4
  %19 = load ptr, ptr %18, align 8
  %20 = icmp ne ptr %19, null
  br i1 %20, label %21, label %29

21:                                               ; preds = %5
  %22 = load ptr, ptr %7, align 8
  %23 = getelementptr inbounds nuw %struct.slurmdb_cluster_rec, ptr %22, i32 0, i32 9
  %24 = getelementptr inbounds nuw %struct.slurmdb_cluster_fed_t, ptr %23, i32 0, i32 4
  %25 = load ptr, ptr %24, align 8
  %26 = getelementptr inbounds nuw %struct.persist_conn_t, ptr %25, i32 0, i32 9
  %27 = load i32, ptr %26, align 4
  %28 = icmp eq i32 %27, -1
  br i1 %28, label %29, label %30

29:                                               ; preds = %21, %5
  store i32 0, ptr %6, align 4
  store i32 1, ptr %15, align 4
  br label %50

30:                                               ; preds = %21
  call void @slurm_msg_t_init(ptr noundef %13)
  call void @llvm.memset.p0.i64(ptr align 8 %14, i8 0, i64 96, i1 false)
  %31 = getelementptr inbounds nuw %struct.sib_msg_t, ptr %14, i32 0, i32 14
  store i16 2, ptr %31, align 4
  %32 = load i32, ptr %8, align 4
  %33 = getelementptr inbounds nuw %struct.sib_msg_t, ptr %14, i32 0, i32 8
  store i32 %32, ptr %33, align 4
  %34 = load i32, ptr %9, align 4
  %35 = getelementptr inbounds nuw %struct.sib_msg_t, ptr %14, i32 0, i32 9
  store i32 %34, ptr %35, align 8
  %36 = load i64, ptr %11, align 8
  %37 = getelementptr inbounds nuw %struct.sib_msg_t, ptr %14, i32 0, i32 11
  store i64 %36, ptr %37, align 8
  %38 = load i32, ptr %10, align 4
  %39 = getelementptr inbounds nuw %struct.sib_msg_t, ptr %14, i32 0, i32 10
  store i32 %38, ptr %39, align 4
  call void @slurm_msg_t_init(ptr noundef %13)
  %40 = getelementptr inbounds nuw %struct.slurm_msg, ptr %13, i32 0, i32 16
  store i16 4502, ptr %40, align 4
  %41 = load ptr, ptr %7, align 8
  %42 = getelementptr inbounds nuw %struct.slurmdb_cluster_rec, ptr %41, i32 0, i32 15
  %43 = load i16, ptr %42, align 8
  %44 = getelementptr inbounds nuw %struct.slurm_msg, ptr %13, i32 0, i32 17
  store i16 %43, ptr %44, align 2
  %45 = getelementptr inbounds nuw %struct.slurm_msg, ptr %13, i32 0, i32 13
  store ptr %14, ptr %45, align 8
  %46 = load ptr, ptr %7, align 8
  %47 = load i32, ptr %8, align 4
  %48 = call i32 @_queue_rpc(ptr noundef %46, ptr noundef %13, i32 noundef %47, i1 noundef zeroext false)
  store i32 %48, ptr %12, align 4
  %49 = load i32, ptr %12, align 4
  store i32 %49, ptr %6, align 4
  store i32 1, ptr %15, align 4
  br label %50

50:                                               ; preds = %30, %29
  call void @llvm.lifetime.end.p0(i64 96, ptr %14) #9
  call void @llvm.lifetime.end.p0(i64 424, ptr %13) #9
  call void @llvm.lifetime.end.p0(i64 4, ptr %12) #9
  %51 = load i32, ptr %6, align 4
  ret i32 %51
}

; Function Attrs: nounwind uwtable
define dso_local ptr @fed_mgr_get_cluster_by_id(i32 noundef %0) #0 {
  %2 = alloca i32, align 4
  %3 = alloca i32, align 4
  store i32 %0, ptr %2, align 4
  call void @llvm.lifetime.start.p0(i64 4, ptr %3) #9
  %4 = load i32, ptr %2, align 4
  store i32 %4, ptr %3, align 4
  %5 = load ptr, ptr @fed_mgr_fed_rec, align 8
  %6 = getelementptr inbounds nuw %struct.slurmdb_federation_rec_t, ptr %5, i32 0, i32 2
  %7 = load ptr, ptr %6, align 8
  %8 = call ptr @list_find_first(ptr noundef %7, ptr noundef @_find_sibling_by_id, ptr noundef %3)
  call void @llvm.lifetime.end.p0(i64 4, ptr %3) #9
  ret ptr %8
}

; Function Attrs: nounwind uwtable
define internal i32 @_is_fed_job(ptr noundef %0, ptr noundef %1) #0 {
  %3 = alloca i32, align 4
  %4 = alloca ptr, align 8
  %5 = alloca ptr, align 8
  store ptr %0, ptr %4, align 8
  store ptr %1, ptr %5, align 8
  %6 = load ptr, ptr @fed_mgr_cluster_rec, align 8
  %7 = icmp ne ptr %6, null
  br i1 %7, label %9, label %8

8:                                                ; preds = %2
  store i32 0, ptr %3, align 4
  br label %32

9:                                                ; preds = %2
  %10 = load ptr, ptr %4, align 8
  %11 = getelementptr inbounds nuw %struct.job_record, ptr %10, i32 0, i32 39
  %12 = load ptr, ptr %11, align 8
  %13 = icmp ne ptr %12, null
  br i1 %13, label %14, label %21

14:                                               ; preds = %9
  %15 = load ptr, ptr %4, align 8
  %16 = getelementptr inbounds nuw %struct.job_record, ptr %15, i32 0, i32 53
  %17 = load i32, ptr %16, align 8
  %18 = call i32 @fed_mgr_get_cluster_id(i32 noundef %17)
  %19 = load ptr, ptr %5, align 8
  store i32 %18, ptr %19, align 4
  %20 = icmp ne i32 %18, 0
  br i1 %20, label %31, label %21

21:                                               ; preds = %14, %9
  br label %22

22:                                               ; preds = %21
  br label %23

23:                                               ; preds = %22
  %24 = call i32 @get_log_level()
  %25 = icmp sge i32 %24, 6
  br i1 %25, label %26, label %28

26:                                               ; preds = %23
  %27 = load ptr, ptr %4, align 8
  call void (i32, ptr, ...) @log_var(i32 noundef 6, ptr noundef @.str.183, ptr noundef %27)
  br label %28

28:                                               ; preds = %26, %23
  br label %29

29:                                               ; preds = %28
  br label %30

30:                                               ; preds = %29
  store i32 0, ptr %3, align 4
  br label %32

31:                                               ; preds = %14
  store i32 1, ptr %3, align 4
  br label %32

32:                                               ; preds = %31, %30, %8
  %33 = load i32, ptr %3, align 4
  ret i32 %33
}

; Function Attrs: nounwind uwtable
define dso_local i32 @fed_mgr_job_complete(ptr noundef %0, i32 noundef %1, i64 noundef %2) #0 {
  %4 = alloca i32, align 4
  %5 = alloca ptr, align 8
  %6 = alloca i32, align 4
  %7 = alloca i64, align 8
  %8 = alloca i32, align 4
  %9 = alloca i32, align 4
  %10 = alloca ptr, align 8
  store ptr %0, ptr %5, align 8
  store i32 %1, ptr %6, align 4
  store i64 %2, ptr %7, align 8
  call void @llvm.lifetime.start.p0(i64 4, ptr %8) #9
  %11 = load ptr, ptr %5, align 8
  %12 = getelementptr inbounds nuw %struct.job_record, ptr %11, i32 0, i32 16
  %13 = load i64, ptr %12, align 8
  %14 = and i64 %13, 4096
  %15 = icmp ne i64 %14, 0
  br i1 %15, label %16, label %17

16:                                               ; preds = %3
  store i32 0, ptr %4, align 4
  store i32 1, ptr %9, align 4
  br label %95

17:                                               ; preds = %3
  %18 = load ptr, ptr %5, align 8
  %19 = call i32 @_is_fed_job(ptr noundef %18, ptr noundef %8)
  %20 = icmp ne i32 %19, 0
  br i1 %20, label %22, label %21

21:                                               ; preds = %17
  store i32 0, ptr %4, align 4
  store i32 1, ptr %9, align 4
  br label %95

22:                                               ; preds = %17
  br label %23

23:                                               ; preds = %22
  %24 = load i64, ptr getelementptr inbounds nuw (%struct.slurm_conf_t, ptr @slurm_conf, i32 0, i32 42), align 8
  %25 = and i64 %24, 281474976710656
  %26 = icmp ne i64 %25, 0
  br i1 %26, label %27, label %40

27:                                               ; preds = %23
  br label %28

28:                                               ; preds = %27
  %29 = call i32 @get_log_level()
  %30 = icmp sge i32 %29, 4
  br i1 %30, label %31, label %37

31:                                               ; preds = %28
  %32 = load ptr, ptr %5, align 8
  %33 = load ptr, ptr @fed_mgr_cluster_rec, align 8
  %34 = getelementptr inbounds nuw %struct.slurmdb_cluster_rec, ptr %33, i32 0, i32 9
  %35 = getelementptr inbounds nuw %struct.slurmdb_cluster_fed_t, ptr %34, i32 0, i32 1
  %36 = load i32, ptr %35, align 8
  call void (i32, ptr, ...) @log_var(i32 noundef 4, ptr noundef @.str.47, ptr noundef %32, i32 noundef %36)
  br label %37

37:                                               ; preds = %31, %28
  br label %38

38:                                               ; preds = %37
  br label %39

39:                                               ; preds = %38
  br label %40

40:                                               ; preds = %39, %23
  br label %41

41:                                               ; preds = %40
  br label %42

42:                                               ; preds = %41
  %43 = load i32, ptr %8, align 4
  %44 = load ptr, ptr @fed_mgr_cluster_rec, align 8
  %45 = getelementptr inbounds nuw %struct.slurmdb_cluster_rec, ptr %44, i32 0, i32 9
  %46 = getelementptr inbounds nuw %struct.slurmdb_cluster_fed_t, ptr %45, i32 0, i32 1
  %47 = load i32, ptr %46, align 8
  %48 = icmp eq i32 %43, %47
  br i1 %48, label %49, label %65

49:                                               ; preds = %42
  %50 = load ptr, ptr %5, align 8
  %51 = getelementptr inbounds nuw %struct.job_record, ptr %50, i32 0, i32 53
  %52 = load i32, ptr %51, align 8
  %53 = load ptr, ptr @fed_mgr_cluster_rec, align 8
  %54 = getelementptr inbounds nuw %struct.slurmdb_cluster_rec, ptr %53, i32 0, i32 9
  %55 = getelementptr inbounds nuw %struct.slurmdb_cluster_fed_t, ptr %54, i32 0, i32 1
  %56 = load i32, ptr %55, align 8
  %57 = load ptr, ptr %5, align 8
  %58 = getelementptr inbounds nuw %struct.job_record, ptr %57, i32 0, i32 39
  %59 = load ptr, ptr %58, align 8
  %60 = getelementptr inbounds nuw %struct.job_fed_details_t, ptr %59, i32 0, i32 2
  %61 = load i64, ptr %60, align 8
  %62 = load ptr, ptr %5, align 8
  %63 = getelementptr inbounds nuw %struct.job_record, ptr %62, i32 0, i32 124
  %64 = load i64, ptr %63, align 8
  call void @_revoke_sibling_jobs(i32 noundef %52, i32 noundef %56, i64 noundef %61, i64 noundef %64)
  store i32 0, ptr %4, align 4
  store i32 1, ptr %9, align 4
  br label %95

65:                                               ; preds = %42
  call void @llvm.lifetime.start.p0(i64 8, ptr %10) #9
  %66 = load i32, ptr %8, align 4
  %67 = call ptr @fed_mgr_get_cluster_by_id(i32 noundef %66)
  store ptr %67, ptr %10, align 8
  %68 = load ptr, ptr %10, align 8
  %69 = icmp ne ptr %68, null
  br i1 %69, label %83, label %70

70:                                               ; preds = %65
  br label %71

71:                                               ; preds = %70
  br label %72

72:                                               ; preds = %71
  %73 = call i32 @get_log_level()
  %74 = icmp sge i32 %73, 3
  br i1 %74, label %75, label %78

75:                                               ; preds = %72
  %76 = load ptr, ptr %5, align 8
  %77 = load i32, ptr %8, align 4
  call void (i32, ptr, ...) @log_var(i32 noundef 3, ptr noundef @.str.34, ptr noundef %76, i32 noundef %77)
  br label %78

78:                                               ; preds = %75, %72
  br label %79

79:                                               ; preds = %78
  br label %80

80:                                               ; preds = %79
  br label %81

81:                                               ; preds = %80
  br label %82

82:                                               ; preds = %81
  store i32 -1, ptr %4, align 4
  store i32 1, ptr %9, align 4
  br label %94

83:                                               ; preds = %65
  %84 = load ptr, ptr %10, align 8
  %85 = load ptr, ptr %5, align 8
  %86 = getelementptr inbounds nuw %struct.job_record, ptr %85, i32 0, i32 53
  %87 = load i32, ptr %86, align 8
  %88 = load ptr, ptr %5, align 8
  %89 = getelementptr inbounds nuw %struct.job_record, ptr %88, i32 0, i32 60
  %90 = load i32, ptr %89, align 8
  %91 = load i32, ptr %6, align 4
  %92 = load i64, ptr %7, align 8
  %93 = call i32 @_persist_fed_job_revoke(ptr noundef %84, i32 noundef %87, i32 noundef %90, i32 noundef %91, i64 noundef %92)
  store i32 %93, ptr %4, align 4
  store i32 1, ptr %9, align 4
  br label %94

94:                                               ; preds = %83, %82
  call void @llvm.lifetime.end.p0(i64 8, ptr %10) #9
  br label %95

95:                                               ; preds = %94, %49, %21, %16
  call void @llvm.lifetime.end.p0(i64 4, ptr %8) #9
  %96 = load i32, ptr %4, align 4
  ret i32 %96
}