; Function Attrs: nounwind uwtable
define dso_local range(i32 -1, 1) i32 @fed_mgr_job_complete(ptr noundef %0, i32 noundef %1, i64 noundef %2) local_unnamed_addr #0 {
  %4 = alloca %struct.slurm_msg, align 8
  %5 = alloca %struct.sib_msg_t, align 8
  %6 = alloca i32, align 4
  %7 = getelementptr inbounds nuw i8, ptr %0, i64 112
  %8 = load i64, ptr %7, align 8
  %9 = and i64 %8, 4096
  %.not = icmp ne i64 %9, 0
  %10 = load ptr, ptr @fed_mgr_cluster_rec, align 8
  %.not.i = icmp eq ptr %10, null
  %or.cond = select i1 %.not, i1 true, i1 %.not.i
  br i1 %or.cond, label %_is_fed_job.exit.thread, label %11

11:                                               ; preds = %3
  %12 = getelementptr inbounds nuw i8, ptr %0, i64 280
  %13 = load ptr, ptr %12, align 8
  %.not4.i = icmp eq ptr %13, null
  br i1 %.not4.i, label %18, label %14

14:                                               ; preds = %11
  %15 = getelementptr inbounds nuw i8, ptr %0, i64 392
  %16 = load i32, ptr %15, align 8
  %17 = lshr i32 %16, 26
  %.not5.i = icmp ult i32 %16, 67108864
  br i1 %.not5.i, label %18, label %_is_fed_job.exit

18:                                               ; preds = %14, %11
  %19 = tail call i32 @get_log_level() #16
  %20 = icmp sgt i32 %19, 5
  br i1 %20, label %21, label %_is_fed_job.exit.thread

21:                                               ; preds = %18
  tail call void (i32, ptr, ...) @log_var(i32 noundef 6, ptr noundef nonnull @.str.183, ptr noundef nonnull %0) #16
  br label %_is_fed_job.exit.thread

_is_fed_job.exit:                                 ; preds = %14
  %22 = load i64, ptr getelementptr inbounds nuw (i8, ptr @slurm_conf, i64 320), align 8
  %23 = and i64 %22, 281474976710656
  %.not17 = icmp eq i64 %23, 0
  br i1 %.not17, label %30, label %24

24:                                               ; preds = %_is_fed_job.exit
  %25 = tail call i32 @get_log_level() #16
  %26 = icmp sgt i32 %25, 3
  %.pre26 = load ptr, ptr @fed_mgr_cluster_rec, align 8
  br i1 %26, label %27, label %30

27:                                               ; preds = %24
  %28 = getelementptr inbounds nuw i8, ptr %.pre26, i64 192
  %29 = load i32, ptr %28, align 8
  tail call void (i32, ptr, ...) @log_var(i32 noundef 4, ptr noundef nonnull @.str.47, ptr noundef nonnull %0, i32 noundef %29) #16
  %.pre = load ptr, ptr @fed_mgr_cluster_rec, align 8
  br label %30

30:                                               ; preds = %24, %27, %_is_fed_job.exit
  %31 = phi ptr [ %.pre26, %24 ], [ %.pre, %27 ], [ %10, %_is_fed_job.exit ]
  %32 = getelementptr inbounds nuw i8, ptr %31, i64 192
  %33 = load i32, ptr %32, align 8
  %34 = icmp eq i32 %17, %33
  br i1 %34, label %35, label %42

35:                                               ; preds = %30
  %36 = load i32, ptr %15, align 8
  %37 = load ptr, ptr %12, align 8
  %38 = getelementptr inbounds nuw i8, ptr %37, i64 16
  %39 = load i64, ptr %38, align 8
  %40 = getelementptr inbounds nuw i8, ptr %0, i64 912
  %41 = load i64, ptr %40, align 8
  tail call fastcc void @_revoke_sibling_jobs(i32 noundef %36, i32 noundef %17, i64 noundef %39, i64 noundef %41)
  br label %_is_fed_job.exit.thread

42:                                               ; preds = %30
  call void @llvm.lifetime.start.p0(i64 4, ptr nonnull %6) #16
  store i32 %17, ptr %6, align 4
  %43 = load ptr, ptr @fed_mgr_fed_rec, align 8
  %44 = getelementptr inbounds nuw i8, ptr %43, i64 16
  %45 = load ptr, ptr %44, align 8
  %46 = call ptr @list_find_first(ptr noundef %45, ptr noundef nonnull @_find_sibling_by_id, ptr noundef nonnull %6) #16
  call void @llvm.lifetime.end.p0(i64 4, ptr nonnull %6) #16
  %.not18 = icmp eq ptr %46, null
  br i1 %.not18, label %47, label %51

47:                                               ; preds = %42
  %48 = call i32 @get_log_level() #16
  %49 = icmp sgt i32 %48, 2
  br i1 %49, label %50, label %_is_fed_job.exit.thread

50:                                               ; preds = %47
  call void (i32, ptr, ...) @log_var(i32 noundef 3, ptr noundef nonnull @.str.34, ptr noundef nonnull %0, i32 noundef %17) #16
  br label %_is_fed_job.exit.thread

51:                                               ; preds = %42
  %52 = load i32, ptr %15, align 8
  %53 = getelementptr inbounds nuw i8, ptr %0, i64 448
  %54 = load i32, ptr %53, align 8
  call void @llvm.lifetime.start.p0(i64 424, ptr nonnull %4) #16
  call void @llvm.lifetime.start.p0(i64 96, ptr nonnull %5) #16
  %55 = getelementptr inbounds nuw i8, ptr %46, i64 216
  %56 = load ptr, ptr %55, align 8
  %.not.i19 = icmp eq ptr %56, null
  br i1 %.not.i19, label %_persist_fed_job_revoke.exit, label %57

57:                                               ; preds = %51
  %58 = getelementptr inbounds nuw i8, ptr %56, i64 60
  %59 = load i32, ptr %58, align 4
  %60 = icmp eq i32 %59, -1
  br i1 %60, label %_persist_fed_job_revoke.exit, label %61

61:                                               ; preds = %57
  call void @slurm_msg_t_init(ptr noundef nonnull %4) #16
  call void @llvm.memset.p0.i64(ptr noundef nonnull align 8 dereferenceable(96) %5, i8 0, i64 96, i1 false)
  %62 = getelementptr inbounds nuw i8, ptr %5, i64 76
  store i16 2, ptr %62, align 4
  %63 = getelementptr inbounds nuw i8, ptr %5, i64 44
  store i32 %52, ptr %63, align 4
  %64 = getelementptr inbounds nuw i8, ptr %5, i64 48
  store i32 %54, ptr %64, align 8
  %65 = getelementptr inbounds nuw i8, ptr %5, i64 56
  store i64 %2, ptr %65, align 8
  %66 = getelementptr inbounds nuw i8, ptr %5, i64 52
  store i32 %1, ptr %66, align 4
  call void @slurm_msg_t_init(ptr noundef nonnull %4) #16
  %67 = getelementptr inbounds nuw i8, ptr %4, i64 212
  store i16 4502, ptr %67, align 4
  %68 = getelementptr inbounds nuw i8, ptr %46, i64 304
  %69 = load i16, ptr %68, align 8
  %70 = getelementptr inbounds nuw i8, ptr %4, i64 214
  store i16 %69, ptr %70, align 2
  %71 = getelementptr inbounds nuw i8, ptr %4, i64 200
  store ptr %5, ptr %71, align 8
  %72 = call fastcc i32 @_queue_rpc(ptr noundef nonnull %46, ptr noundef %4, i32 noundef %52)
  br label %_persist_fed_job_revoke.exit

_persist_fed_job_revoke.exit:                     ; preds = %51, %57, %61
  %.0.i20 = phi i32 [ %72, %61 ], [ 0, %57 ], [ 0, %51 ]
  call void @llvm.lifetime.end.p0(i64 96, ptr nonnull %5) #16
  call void @llvm.lifetime.end.p0(i64 424, ptr nonnull %4) #16
  br label %_is_fed_job.exit.thread

_is_fed_job.exit.thread:                          ; preds = %18, %21, %_persist_fed_job_revoke.exit, %50, %47, %3, %35
  %.0 = phi i32 [ 0, %35 ], [ 0, %3 ], [ %.0.i20, %_persist_fed_job_revoke.exit ], [ -1, %50 ], [ -1, %47 ], [ 0, %21 ], [ 0, %18 ]
  ret i32 %.0
}